; Function Attrs: nounwind uwtable
define dso_local range(i32 -1, 1) i32 @cbuf_opt_get(ptr noundef %0, i32 noundef %1, ptr noundef writeonly captures(address_is_null) %2) local_unnamed_addr #0 {
  %4 = icmp eq ptr %2, null
  br i1 %4, label %5, label %7

5:                                                ; preds = %3
  %6 = tail call ptr @__errno_location() #14
  store i32 22, ptr %6, align 4
  br label %22

7:                                                ; preds = %3
  %8 = tail call i32 @pthread_mutex_lock(ptr noundef %0) #15
  %.not = icmp eq i32 %8, 0
  br i1 %.not, label %11, label %9

9:                                                ; preds = %7
  %10 = tail call ptr @__errno_location() #14
  store i32 %8, ptr %10, align 4
  tail call void (ptr, ...) @fatal_abort(ptr noundef nonnull @.str.2, ptr noundef nonnull @__func__.cbuf_opt_get) #16
  unreachable

11:                                               ; preds = %7
  %12 = icmp eq i32 %1, 0
  br i1 %12, label %13, label %16

13:                                               ; preds = %11
  %14 = getelementptr inbounds nuw i8, ptr %0, i64 60
  %15 = load i32, ptr %14, align 4
  store i32 %15, ptr %2, align 4
  br label %18

16:                                               ; preds = %11
  %17 = tail call ptr @__errno_location() #14
  store i32 22, ptr %17, align 4
  br label %18

18:                                               ; preds = %13, %16
  %.011 = phi i32 [ 0, %13 ], [ -1, %16 ]
  %19 = tail call i32 @pthread_mutex_unlock(ptr noundef %0) #15
  %.not15 = icmp eq i32 %19, 0
  br i1 %.not15, label %22, label %20

20:                                               ; preds = %18
  %21 = tail call ptr @__errno_location() #14
  store i32 %19, ptr %21, align 4
  tail call void (ptr, ...) @fatal_abort(ptr noundef nonnull @.str.3, ptr noundef nonnull @__func__.cbuf_opt_get) #16
  unreachable

22:                                               ; preds = %18, %5
  %.0 = phi i32 [ -1, %5 ], [ %.011, %18 ]
  ret i32 %.0
}